; ModuleID = '30/195.c'
source_filename = "30/195.c"
target datalayout = "e-m:e-p270:32:32-p271:32:32-p272:64:64-i64:64-f80:128-n8:16:32:64-S128"
target triple = "x86_64-pc-linux-gnu"

@.str = private unnamed_addr constant [3 x i8] c"%d\00", align 1
@.str.1 = private unnamed_addr constant [4 x i8] c"%d\0A\00", align 1

; Function Attrs: noinline nounwind uwtable
define dso_local i32 @main() #0 {
  %1 = alloca i32, align 4
  %2 = alloca i32, align 4
  %3 = alloca i32, align 4
  %4 = alloca i32, align 4
  %5 = alloca i32, align 4
  %6 = alloca i32, align 4
  store i32 0, i32* %1, align 4
  store i32 0, i32* %4, align 4
  %7 = call i32 (i8*, ...) @__isoc99_scanf(i8* getelementptr inbounds ([3 x i8], [3 x i8]* @.str, i64 0, i64 0), i32* %2)
  store i32 1, i32* %3, align 4
  br label %8

8:                                                ; preds = %48, %0
  %9 = load i32, i32* %3, align 4
  %10 = load i32, i32* %2, align 4
  %11 = icmp sle i32 %9, %10
  br i1 %11, label %12, label %51

12:                                               ; preds = %8
  %13 = load i32, i32* %3, align 4
  %14 = srem i32 %13, 10
  store i32 %14, i32* %5, align 4
  %15 = load i32, i32* %3, align 4
  %16 = load i32, i32* %5, align 4
  %17 = sub nsw i32 %15, %16
  %18 = sdiv i32 %17, 10
  store i32 %18, i32* %6, align 4
  %19 = load i32, i32* %3, align 4
  %20 = srem i32 %19, 7
  %21 = icmp eq i32 %20, 0
  br i1 %21, label %22, label %25

22:                                               ; preds = %12
  %23 = load i32, i32* %4, align 4
  %24 = add nsw i32 %23, 0
  store i32 %24, i32* %4, align 4
  br label %47

25:                                               ; preds = %12
  %26 = load i32, i32* %3, align 4
  %27 = sub nsw i32 %26, 7
  %28 = srem i32 %27, 10
  %29 = icmp eq i32 %28, 0
  br i1 %29, label %30, label %33

30:                                               ; preds = %25
  %31 = load i32, i32* %4, align 4
  %32 = add nsw i32 %31, 0
  store i32 %32, i32* %4, align 4
  br label %46

33:                                               ; preds = %25
  %34 = load i32, i32* %6, align 4
  %35 = icmp eq i32 %34, 7
  br i1 %35, label %36, label %39

36:                                               ; preds = %33
  %37 = load i32, i32* %4, align 4
  %38 = add nsw i32 %37, 0
  store i32 %38, i32* %4, align 4
  br label %45

39:                                               ; preds = %33
  %40 = load i32, i32* %4, align 4
  %41 = load i32, i32* %3, align 4
  %42 = load i32, i32* %3, align 4
  %43 = mul nsw i32 %41, %42
  %44 = add nsw i32 %40, %43
  store i32 %44, i32* %4, align 4
  br label %45

45:                                               ; preds = %39, %36
  br label %46

46:                                               ; preds = %45, %30
  br label %47

47:                                               ; preds = %46, %22
  br label %48

48:                                               ; preds = %47
  %49 = load i32, i32* %3, align 4
  %50 = add nsw i32 %49, 1
  store i32 %50, i32* %3, align 4
  br label %8

51:                                               ; preds = %8
  %52 = load i32, i32* %4, align 4
  %53 = call i32 (i8*, ...) @printf(i8* getelementptr inbounds ([4 x i8], [4 x i8]* @.str.1, i64 0, i64 0), i32 %52)
  ret i32 0
}

declare dso_local i32 @__isoc99_scanf(i8*, ...) #1

declare dso_local i32 @printf(i8*, ...) #1


!llvm.module.flags = !{!0}
!llvm.ident = !{!1}

!0 = !{i32 1, !"wchar_size", i32 4}
!1 = !{!"clang version 10.0.0-4ubuntu1 "}
