; ModuleID = 'source-C-CXX/29/195.c'
source_filename = "source-C-CXX/29/195.c"
target datalayout = "e-m:e-p270:32:32-p271:32:32-p272:64:64-i64:64-f80:128-n8:16:32:64-S128"
target triple = "x86_64-pc-linux-gnu"

@.str = private unnamed_addr constant [3 x i8] c"%d\00", align 1
@.str.1 = private unnamed_addr constant [4 x i8] c"%d\0A\00", align 1

; Function Attrs: nofree nounwind sspstrong uwtable
define dso_local i32 @main() local_unnamed_addr #0 {
  %1 = alloca i32, align 4
  %2 = bitcast i32* %1 to i8*
  call void @llvm.lifetime.start.p0i8(i64 4, i8* nonnull %2) #4
  %3 = call i32 (i8*, ...) @__isoc99_scanf(i8* getelementptr inbounds ([3 x i8], [3 x i8]* @.str, i64 0, i64 0), i32* nonnull %1)
  %4 = load i32, i32* %1, align 4, !tbaa !5
  %5 = icmp slt i32 %4, 1
  br i1 %5, label %80, label %6

6:                                                ; preds = %0
  %7 = icmp ult i32 %4, 8
  br i1 %7, label %56, label %8

8:                                                ; preds = %6
  %9 = and i32 %4, -8
  %10 = or i32 %9, 1
  br label %11

11:                                               ; preds = %11, %8
  %12 = phi i32 [ 0, %8 ], [ %49, %11 ]
  %13 = phi <4 x i32> [ <i32 1, i32 2, i32 3, i32 4>, %8 ], [ %50, %11 ]
  %14 = phi <4 x i32> [ zeroinitializer, %8 ], [ %45, %11 ]
  %15 = phi <4 x i32> [ zeroinitializer, %8 ], [ %48, %11 ]
  %16 = add <4 x i32> %13, <i32 4, i32 4, i32 4, i32 4>
  %17 = urem <4 x i32> %13, <i32 7, i32 7, i32 7, i32 7>
  %18 = urem <4 x i32> %16, <i32 7, i32 7, i32 7, i32 7>
  %19 = icmp eq <4 x i32> %17, zeroinitializer
  %20 = icmp eq <4 x i32> %18, zeroinitializer
  %21 = urem <4 x i32> %13, <i32 10, i32 10, i32 10, i32 10>
  %22 = urem <4 x i32> %16, <i32 10, i32 10, i32 10, i32 10>
  %23 = add nsw <4 x i32> %13, <i32 -7, i32 -7, i32 -7, i32 -7>
  %24 = add <4 x i32> %13, <i32 -3, i32 -3, i32 -3, i32 -3>
  %25 = srem <4 x i32> %23, <i32 10, i32 10, i32 10, i32 10>
  %26 = srem <4 x i32> %24, <i32 10, i32 10, i32 10, i32 10>
  %27 = icmp eq <4 x i32> %25, zeroinitializer
  %28 = icmp eq <4 x i32> %26, zeroinitializer
  %29 = add nsw <4 x i32> %13, <i32 -70, i32 -70, i32 -70, i32 -70>
  %30 = add <4 x i32> %13, <i32 -66, i32 -66, i32 -66, i32 -66>
  %31 = sub <4 x i32> %29, %21
  %32 = sub <4 x i32> %30, %22
  %33 = icmp ult <4 x i32> %31, <i32 10, i32 10, i32 10, i32 10>
  %34 = icmp ult <4 x i32> %32, <i32 10, i32 10, i32 10, i32 10>
  %35 = select <4 x i1> %27, <4 x i1> <i1 true, i1 true, i1 true, i1 true>, <4 x i1> %33
  %36 = select <4 x i1> %28, <4 x i1> <i1 true, i1 true, i1 true, i1 true>, <4 x i1> %34
  %37 = mul nsw <4 x i32> %13, %13
  %38 = mul nsw <4 x i32> %16, %16
  %39 = xor <4 x i1> %19, <i1 true, i1 true, i1 true, i1 true>
  %40 = xor <4 x i1> %20, <i1 true, i1 true, i1 true, i1 true>
  %41 = select <4 x i1> %39, <4 x i1> %35, <4 x i1> zeroinitializer
  %42 = select <4 x i1> %40, <4 x i1> %36, <4 x i1> zeroinitializer
  %43 = or <4 x i1> %41, %19
  %44 = select <4 x i1> %43, <4 x i32> zeroinitializer, <4 x i32> %37
  %45 = add <4 x i32> %14, %44
  %46 = or <4 x i1> %42, %20
  %47 = select <4 x i1> %46, <4 x i32> zeroinitializer, <4 x i32> %38
  %48 = add <4 x i32> %15, %47
  %49 = add nuw i32 %12, 8
  %50 = add <4 x i32> %13, <i32 8, i32 8, i32 8, i32 8>
  %51 = icmp eq i32 %49, %9
  br i1 %51, label %52, label %11, !llvm.loop !9

52:                                               ; preds = %11
  %53 = add <4 x i32> %48, %45
  %54 = call i32 @llvm.vector.reduce.add.v4i32(<4 x i32> %53)
  %55 = icmp eq i32 %4, %9
  br i1 %55, label %80, label %56

56:                                               ; preds = %6, %52
  %57 = phi i32 [ 1, %6 ], [ %10, %52 ]
  %58 = phi i32 [ 0, %6 ], [ %54, %52 ]
  br label %59

59:                                               ; preds = %56, %76
  %60 = phi i32 [ %78, %76 ], [ %57, %56 ]
  %61 = phi i32 [ %77, %76 ], [ %58, %56 ]
  %62 = urem i32 %60, 7
  %63 = icmp eq i32 %62, 0
  br i1 %63, label %76, label %64

64:                                               ; preds = %59
  %65 = urem i32 %60, 10
  %66 = add nsw i32 %60, -7
  %67 = srem i32 %66, 10
  %68 = icmp eq i32 %67, 0
  %69 = add nsw i32 %60, -70
  %70 = sub i32 %69, %65
  %71 = icmp ult i32 %70, 10
  %72 = select i1 %68, i1 true, i1 %71
  br i1 %72, label %76, label %73

73:                                               ; preds = %64
  %74 = mul nsw i32 %60, %60
  %75 = add nsw i32 %74, %61
  br label %76

76:                                               ; preds = %64, %59, %73
  %77 = phi i32 [ %75, %73 ], [ %61, %59 ], [ %61, %64 ]
  %78 = add nuw i32 %60, 1
  %79 = icmp eq i32 %60, %4
  br i1 %79, label %80, label %59, !llvm.loop !12

80:                                               ; preds = %76, %52, %0
  %81 = phi i32 [ 0, %0 ], [ %54, %52 ], [ %77, %76 ]
  %82 = call i32 (i8*, ...) @printf(i8* nonnull dereferenceable(1) getelementptr inbounds ([4 x i8], [4 x i8]* @.str.1, i64 0, i64 0), i32 %81)
  call void @llvm.lifetime.end.p0i8(i64 4, i8* nonnull %2) #4
  ret i32 0
}

; Function Attrs: argmemonly mustprogress nofree nosync nounwind willreturn
declare void @llvm.lifetime.start.p0i8(i64 immarg, i8* nocapture) #1

; Function Attrs: nofree nounwind
declare noundef i32 @__isoc99_scanf(i8* nocapture noundef readonly, ...) local_unnamed_addr #2

; Function Attrs: argmemonly mustprogress nofree nosync nounwind willreturn
declare void @llvm.lifetime.end.p0i8(i64 immarg, i8* nocapture) #1

; Function Attrs: nofree nounwind
declare noundef i32 @printf(i8* nocapture noundef readonly, ...) local_unnamed_addr #2

; Function Attrs: nofree nosync nounwind readnone willreturn
declare i32 @llvm.vector.reduce.add.v4i32(<4 x i32>) #3


!llvm.module.flags = !{!0, !1, !2, !3}
!llvm.ident = !{!4}

!0 = !{i32 1, !"wchar_size", i32 4}
!1 = !{i32 7, !"PIC Level", i32 2}
!2 = !{i32 7, !"PIE Level", i32 2}
!3 = !{i32 7, !"uwtable", i32 1}
!4 = !{!"clang version 13.0.0"}
!5 = !{!6, !6, i64 0}
!6 = !{!"int", !7, i64 0}
!7 = !{!"omnipotent char", !8, i64 0}
!8 = !{!"Simple C/C++ TBAA"}
!9 = distinct !{!9, !10, !11}
!10 = !{!"llvm.loop.mustprogress"}
!11 = !{!"llvm.loop.isvectorized", i32 1}
!12 = distinct !{!12, !10, !13, !11}
!13 = !{!"llvm.loop.unroll.runtime.disable"}
